; Function Attrs: mustprogress uwtable
define hidden noundef ptr @_Z15mk_ufnia_tacticR11ast_managerRK10params_ref(ptr noundef nonnull align 8 dereferenceable(976) %0, ptr noundef nonnull align 8 dereferenceable(8) %1) local_unnamed_addr #3 personality ptr @__gxx_personality_v0 {
  %3 = alloca %class.params_ref, align 8
  %4 = tail call fastcc noundef ptr @_ZL21mk_quant_preprocessorR11ast_managerb(ptr noundef nonnull align 8 dereferenceable(976) %0, i1 noundef zeroext true)
  %5 = tail call noundef ptr @_Z17mk_qe_lite_tacticR11ast_managerRK10params_ref(ptr noundef nonnull align 8 dereferenceable(976) %0, ptr noundef nonnull align 8 dereferenceable(8) %1)
  call void @llvm.lifetime.start.p0(i64 8, ptr nonnull %3) #22
  store ptr null, ptr %3, align 8, !tbaa !3
  %6 = invoke noundef ptr @_Z13mk_smt_tacticR11ast_managerRK10params_ref(ptr noundef nonnull align 8 dereferenceable(976) %0, ptr noundef nonnull align 8 dereferenceable(8) %3)
          to label %7 unwind label %13

7:                                                ; preds = %2
  %8 = invoke noundef ptr @_Z8and_thenP6tacticS0_S0_(ptr noundef %4, ptr noundef %5, ptr noundef %6)
          to label %9 unwind label %13

9:                                                ; preds = %7
  call void @_ZN10params_refD1Ev(ptr noundef nonnull align 8 dereferenceable(8) %3) #22
  call void @llvm.lifetime.end.p0(i64 8, ptr nonnull %3) #22
  %10 = load ptr, ptr %8, align 8, !tbaa !9
  %11 = getelementptr inbounds nuw i8, ptr %10, i64 104
  %12 = load ptr, ptr %11, align 8
  call void %12(ptr noundef nonnull align 8 dereferenceable(12) %8, ptr noundef nonnull align 8 dereferenceable(8) %1)
  ret ptr %8

13:                                               ; preds = %7, %2
  %14 = landingpad { ptr, i32 }
          cleanup
  call void @_ZN10params_refD1Ev(ptr noundef nonnull align 8 dereferenceable(8) %3) #22
  call void @llvm.lifetime.end.p0(i64 8, ptr nonnull %3) #22
  resume { ptr, i32 } %14
}